target datalayout = "e-m:e-p270:32:32-p271:32:32-p272:64:64-i64:64-i128:128-f80:128-n8:16:32:64-S128"
target triple = "x86_64-pc-linux-gnu"

%struct.cli_asn1 = type { i8, i32, ptr, ptr }
%struct.cl_fmap = type { ptr, ptr, ptr, i64, i64, i64, i64, i8, i8, i8, i64, i64, i64, i64, ptr, ptr, ptr, ptr, ptr, ptr, ptr, i8, [16 x i8], i8, [20 x i8], i8, [32 x i8], ptr, ptr }
%struct.crtmgr = type { ptr, i32 }
%struct.cli_mapped_region = type { i32, i32 }

@.str.9 = private unnamed_addr constant [11 x i8] c"+\06\01\04\01\827\02\01\0F\00", align 1
@cli_debug_flag = external global i8, align 1
@.str.18 = private unnamed_addr constant [5 x i8] c"%02x\00", align 1
@.str.23 = private unnamed_addr constant [36 x i8] c"in asn1_check_mscat (offset: %llu)\0A\00", align 1
@.str.24 = private unnamed_addr constant [68 x i8] c"asn1_check_mscat: expected SEQUENCE at top level of hash container\0A\00", align 1
@.str.25 = private unnamed_addr constant [74 x i8] c"asn1_check_mscat: expected spcPEImageData OID in the first hash SEQUENCE\0A\00", align 1
@.str.26 = private unnamed_addr constant [74 x i8] c"asn1_check_mscat: expected second hash container object to be a SEQUENCE\0A\00", align 1
@.str.27 = private unnamed_addr constant [47 x i8] c"asn1_check_mscat: extra data in hash SEQUENCE\0A\00", align 1
@.str.28 = private unnamed_addr constant [45 x i8] c"asn1_check_mscat: unexpected file hash algo\0A\00", align 1
@.str.29 = private unnamed_addr constant [18 x i8] c"Authenticode: %s\0A\00", align 1
@.str.30 = private unnamed_addr constant [73 x i8] c"asn1_check_mscat: computed authenticode hash did not match stored value\0A\00", align 1
@.str.31 = private unnamed_addr constant [65 x i8] c"asn1_check_mscat: extra data after the stored authenticode hash\0A\00", align 1
@.str.32 = private unnamed_addr constant [67 x i8] c"asn1_check_mscat: file with valid authenticode signature, trusted\0A\00", align 1

; Function Attrs: inlinehint nounwind uwtable
define internal ptr @fmap_need_off_once(ptr noundef %0, i64 noundef %1, i64 noundef %2) #3 {
  %4 = alloca ptr, align 8
  %5 = alloca i64, align 8
  %6 = alloca i64, align 8
  store ptr %0, ptr %4, align 8, !tbaa !3
  store i64 %1, ptr %5, align 8, !tbaa !61
  store i64 %2, ptr %6, align 8, !tbaa !61
  %7 = load ptr, ptr %4, align 8, !tbaa !3
  %8 = getelementptr inbounds nuw %struct.cl_fmap, ptr %7, i32 0, i32 15
  %9 = load ptr, ptr %8, align 8, !tbaa !87
  %10 = load ptr, ptr %4, align 8, !tbaa !3
  %11 = load i64, ptr %5, align 8, !tbaa !61
  %12 = load i64, ptr %6, align 8, !tbaa !61
  %13 = call ptr %9(ptr noundef %10, i64 noundef %11, i64 noundef %12, i32 noundef 0)
  ret ptr %13
}

; Function Attrs: nounwind uwtable
define i32 @asn1_check_mscat(ptr noundef %0, ptr noundef %1, i64 noundef %2, i32 noundef %3, ptr noundef %4, i32 noundef %5, ptr noundef %6) #0 {
  %8 = alloca i32, align 4
  %9 = alloca ptr, align 8
  %10 = alloca ptr, align 8
  %11 = alloca i64, align 8
  %12 = alloca i32, align 4
  %13 = alloca ptr, align 8
  %14 = alloca i32, align 4
  %15 = alloca ptr, align 8
  %16 = alloca i32, align 4
  %17 = alloca %struct.cli_asn1, align 8
  %18 = alloca i32, align 4
  %19 = alloca [64 x i8], align 16
  %20 = alloca i32, align 4
  %21 = alloca ptr, align 8
  %22 = alloca %struct.crtmgr, align 8
  %23 = alloca i32, align 4
  %24 = alloca ptr, align 8
  %25 = alloca i32, align 4
  %26 = alloca i32, align 4
  %27 = alloca ptr, align 8
  %28 = alloca [129 x i8], align 16
  store ptr %0, ptr %9, align 8, !tbaa !8
  store ptr %1, ptr %10, align 8, !tbaa !3
  store i64 %2, ptr %11, align 8, !tbaa !61
  store i32 %3, ptr %12, align 4, !tbaa !20
  store ptr %4, ptr %13, align 8, !tbaa !88
  store i32 %5, ptr %14, align 4, !tbaa !20
  store ptr %6, ptr %15, align 8, !tbaa !64
  call void @llvm.lifetime.start.p0(i64 4, ptr %16) #8
  call void @llvm.lifetime.start.p0(i64 24, ptr %17) #8
  call void @llvm.lifetime.start.p0(i64 4, ptr %18) #8
  call void @llvm.lifetime.start.p0(i64 64, ptr %19) #8
  call void @llvm.lifetime.start.p0(i64 4, ptr %20) #8
  call void @llvm.lifetime.start.p0(i64 8, ptr %21) #8
  call void @llvm.lifetime.start.p0(i64 16, ptr %22) #8
  call void @llvm.lifetime.start.p0(i64 4, ptr %23) #8
  call void @llvm.lifetime.start.p0(i64 8, ptr %24) #8
  call void @llvm.lifetime.start.p0(i64 4, ptr %25) #8
  %29 = load i64, ptr %11, align 8, !tbaa !61
  call void (ptr, ...) @cli_dbgmsg(ptr noundef @.str.23, i64 noundef %29)
  call void @crtmgr_init(ptr noundef %22)
  %30 = load ptr, ptr %9, align 8, !tbaa !8
  %31 = call i32 @crtmgr_add_roots(ptr noundef %30, ptr noundef %22, i32 noundef 1)
  %32 = icmp ne i32 %31, 0
  br i1 %32, label %33, label %34

33:                                               ; preds = %7
  call void @crtmgr_free(ptr noundef %22)
  store i32 6, ptr %8, align 4
  store i32 1, ptr %26, align 4
  br label %173

34:                                               ; preds = %7
  %35 = load ptr, ptr %9, align 8, !tbaa !8
  %36 = load ptr, ptr %10, align 8, !tbaa !3
  %37 = load i64, ptr %11, align 8, !tbaa !61
  %38 = load i32, ptr %12, align 4, !tbaa !20
  %39 = load ptr, ptr %15, align 8, !tbaa !64
  %40 = call i32 @asn1_parse_mscat(ptr noundef %35, ptr noundef %36, i64 noundef %37, i32 noundef %38, ptr noundef %22, i32 noundef 1, ptr noundef %21, ptr noundef %16, ptr noundef %39)
  store i32 %40, ptr %23, align 4, !tbaa !20
  call void @crtmgr_free(ptr noundef %22)
  %41 = load i32, ptr %23, align 4, !tbaa !20
  %42 = icmp ne i32 0, %41
  br i1 %42, label %43, label %45

43:                                               ; preds = %34
  %44 = load i32, ptr %23, align 4, !tbaa !20
  store i32 %44, ptr %8, align 4
  store i32 1, ptr %26, align 4
  br label %173

45:                                               ; preds = %34
  %46 = load ptr, ptr %10, align 8, !tbaa !3
  %47 = load ptr, ptr %21, align 8, !tbaa !62
  %48 = call i32 @asn1_expect_objtype(ptr noundef %46, ptr noundef %47, ptr noundef %16, ptr noundef %17, i8 noundef zeroext 48)
  %49 = icmp ne i32 %48, 0
  br i1 %49, label %50, label %51

50:                                               ; preds = %45
  call void (ptr, ...) @cli_dbgmsg(ptr noundef @.str.24)
  store i32 27, ptr %8, align 4
  store i32 1, ptr %26, align 4
  br label %173

51:                                               ; preds = %45
  %52 = load ptr, ptr %10, align 8, !tbaa !3
  %53 = getelementptr inbounds nuw %struct.cli_asn1, ptr %17, i32 0, i32 2
  %54 = getelementptr inbounds nuw %struct.cli_asn1, ptr %17, i32 0, i32 1
  %55 = call i32 @asn1_expect_obj(ptr noundef %52, ptr noundef %53, ptr noundef %54, i8 noundef zeroext 6, i32 noundef 10, ptr noundef @.str.9)
  %56 = icmp ne i32 %55, 0
  br i1 %56, label %57, label %58

57:                                               ; preds = %51
  call void (ptr, ...) @cli_dbgmsg(ptr noundef @.str.25)
  store i32 27, ptr %8, align 4
  store i32 1, ptr %26, align 4
  br label %173

58:                                               ; preds = %51
  %59 = load ptr, ptr %10, align 8, !tbaa !3
  %60 = getelementptr inbounds nuw %struct.cli_asn1, ptr %17, i32 0, i32 3
  %61 = load ptr, ptr %60, align 8, !tbaa !16
  %62 = call i32 @asn1_expect_objtype(ptr noundef %59, ptr noundef %61, ptr noundef %16, ptr noundef %17, i8 noundef zeroext 48)
  %63 = icmp ne i32 %62, 0
  br i1 %63, label %64, label %65

64:                                               ; preds = %58
  call void (ptr, ...) @cli_dbgmsg(ptr noundef @.str.26)
  store i32 27, ptr %8, align 4
  store i32 1, ptr %26, align 4
  br label %173

65:                                               ; preds = %58
  %66 = load i32, ptr %16, align 4, !tbaa !20
  %67 = icmp ne i32 %66, 0
  br i1 %67, label %68, label %69

68:                                               ; preds = %65
  call void (ptr, ...) @cli_dbgmsg(ptr noundef @.str.27)
  store i32 27, ptr %8, align 4
  store i32 1, ptr %26, align 4
  br label %173

69:                                               ; preds = %65
  %70 = load ptr, ptr %10, align 8, !tbaa !3
  %71 = getelementptr inbounds nuw %struct.cli_asn1, ptr %17, i32 0, i32 2
  %72 = getelementptr inbounds nuw %struct.cli_asn1, ptr %17, i32 0, i32 1
  %73 = call i32 @asn1_expect_hash_algo(ptr noundef %70, ptr noundef %71, ptr noundef %72, ptr noundef %18, ptr noundef %20)
  %74 = icmp ne i32 %73, 0
  br i1 %74, label %75, label %76

75:                                               ; preds = %69
  call void (ptr, ...) @cli_dbgmsg(ptr noundef @.str.28)
  store i32 27, ptr %8, align 4
  store i32 1, ptr %26, align 4
  br label %173

76:                                               ; preds = %69
  %77 = load i32, ptr %18, align 4, !tbaa !20
  %78 = call ptr @get_hash_ctx(i32 noundef %77)
  store ptr %78, ptr %24, align 8, !tbaa !62
  %79 = icmp eq ptr null, %78
  br i1 %79, label %80, label %81

80:                                               ; preds = %76
  store i32 27, ptr %8, align 4
  store i32 1, ptr %26, align 4
  br label %173

81:                                               ; preds = %76
  store i32 0, ptr %25, align 4, !tbaa !20
  br label %82

82:                                               ; preds = %128, %81
  %83 = load i32, ptr %25, align 4, !tbaa !20
  %84 = load i32, ptr %14, align 4, !tbaa !20
  %85 = icmp ult i32 %83, %84
  br i1 %85, label %86, label %131

86:                                               ; preds = %82
  call void @llvm.lifetime.start.p0(i64 8, ptr %27) #8
  %87 = load ptr, ptr %13, align 8, !tbaa !88
  %88 = load i32, ptr %25, align 4, !tbaa !20
  %89 = zext i32 %88 to i64
  %90 = getelementptr inbounds nuw %struct.cli_mapped_region, ptr %87, i64 %89
  %91 = getelementptr inbounds nuw %struct.cli_mapped_region, ptr %90, i32 0, i32 1
  %92 = load i32, ptr %91, align 4, !tbaa !90
  %93 = icmp eq i32 0, %92
  br i1 %93, label %94, label %95

94:                                               ; preds = %86
  store i32 4, ptr %26, align 4
  br label %125

95:                                               ; preds = %86
  %96 = load ptr, ptr %10, align 8, !tbaa !3
  %97 = load ptr, ptr %13, align 8, !tbaa !88
  %98 = load i32, ptr %25, align 4, !tbaa !20
  %99 = zext i32 %98 to i64
  %100 = getelementptr inbounds nuw %struct.cli_mapped_region, ptr %97, i64 %99
  %101 = getelementptr inbounds nuw %struct.cli_mapped_region, ptr %100, i32 0, i32 0
  %102 = load i32, ptr %101, align 4, !tbaa !92
  %103 = zext i32 %102 to i64
  %104 = load ptr, ptr %13, align 8, !tbaa !88
  %105 = load i32, ptr %25, align 4, !tbaa !20
  %106 = zext i32 %105 to i64
  %107 = getelementptr inbounds nuw %struct.cli_mapped_region, ptr %104, i64 %106
  %108 = getelementptr inbounds nuw %struct.cli_mapped_region, ptr %107, i32 0, i32 1
  %109 = load i32, ptr %108, align 4, !tbaa !90
  %110 = zext i32 %109 to i64
  %111 = call ptr @fmap_need_off_once(ptr noundef %96, i64 noundef %103, i64 noundef %110)
  store ptr %111, ptr %27, align 8, !tbaa !66
  %112 = icmp ne ptr %111, null
  br i1 %112, label %114, label %113

113:                                              ; preds = %95
  store i32 6, ptr %8, align 4
  store i32 1, ptr %26, align 4
  br label %125

114:                                              ; preds = %95
  %115 = load ptr, ptr %24, align 8, !tbaa !62
  %116 = load ptr, ptr %27, align 8, !tbaa !66
  %117 = load ptr, ptr %13, align 8, !tbaa !88
  %118 = load i32, ptr %25, align 4, !tbaa !20
  %119 = zext i32 %118 to i64
  %120 = getelementptr inbounds nuw %struct.cli_mapped_region, ptr %117, i64 %119
  %121 = getelementptr inbounds nuw %struct.cli_mapped_region, ptr %120, i32 0, i32 1
  %122 = load i32, ptr %121, align 4, !tbaa !90
  %123 = zext i32 %122 to i64
  %124 = call i32 @cl_update_hash(ptr noundef %115, ptr noundef %116, i64 noundef %123)
  store i32 0, ptr %26, align 4
  br label %125

125:                                              ; preds = %114, %113, %94
  call void @llvm.lifetime.end.p0(i64 8, ptr %27) #8
  %126 = load i32, ptr %26, align 4
  switch i32 %126, label %173 [
    i32 0, label %127
    i32 4, label %128
  ]

127:                                              ; preds = %125
  br label %128

128:                                              ; preds = %127, %125
  %129 = load i32, ptr %25, align 4, !tbaa !20
  %130 = add i32 %129, 1
  store i32 %130, ptr %25, align 4, !tbaa !20
  br label %82

131:                                              ; preds = %82
  %132 = load ptr, ptr %24, align 8, !tbaa !62
  %133 = getelementptr inbounds [64 x i8], ptr %19, i64 0, i64 0
  %134 = call i32 @cl_finish_hash(ptr noundef %132, ptr noundef %133)
  %135 = load i8, ptr @cli_debug_flag, align 1, !tbaa !22
  %136 = icmp ne i8 %135, 0
  br i1 %136, label %137, label %158

137:                                              ; preds = %131
  call void @llvm.lifetime.start.p0(i64 129, ptr %28) #8
  store i32 0, ptr %25, align 4, !tbaa !20
  br label %138

138:                                              ; preds = %153, %137
  %139 = load i32, ptr %25, align 4, !tbaa !20
  %140 = load i32, ptr %20, align 4, !tbaa !20
  %141 = icmp ult i32 %139, %140
  br i1 %141, label %142, label %156

142:                                              ; preds = %138
  %143 = load i32, ptr %25, align 4, !tbaa !20
  %144 = mul i32 %143, 2
  %145 = zext i32 %144 to i64
  %146 = getelementptr inbounds nuw [129 x i8], ptr %28, i64 0, i64 %145
  %147 = load i32, ptr %25, align 4, !tbaa !20
  %148 = zext i32 %147 to i64
  %149 = getelementptr inbounds nuw [64 x i8], ptr %19, i64 0, i64 %148
  %150 = load i8, ptr %149, align 1, !tbaa !22
  %151 = zext i8 %150 to i32
  %152 = call i32 (ptr, ptr, ...) @sprintf(ptr noundef %146, ptr noundef @.str.18, i32 noundef %151) #8
  br label %153

153:                                              ; preds = %142
  %154 = load i32, ptr %25, align 4, !tbaa !20
  %155 = add i32 %154, 1
  store i32 %155, ptr %25, align 4, !tbaa !20
  br label %138

156:                                              ; preds = %138
  %157 = getelementptr inbounds [129 x i8], ptr %28, i64 0, i64 0
  call void (ptr, ...) @cli_dbgmsg(ptr noundef @.str.29, ptr noundef %157)
  call void @llvm.lifetime.end.p0(i64 129, ptr %28) #8
  br label %158

158:                                              ; preds = %156, %131
  %159 = load ptr, ptr %10, align 8, !tbaa !3
  %160 = getelementptr inbounds nuw %struct.cli_asn1, ptr %17, i32 0, i32 2
  %161 = getelementptr inbounds nuw %struct.cli_asn1, ptr %17, i32 0, i32 1
  %162 = load i32, ptr %20, align 4, !tbaa !20
  %163 = getelementptr inbounds [64 x i8], ptr %19, i64 0, i64 0
  %164 = call i32 @asn1_expect_obj(ptr noundef %159, ptr noundef %160, ptr noundef %161, i8 noundef zeroext 4, i32 noundef %162, ptr noundef %163)
  %165 = icmp ne i32 %164, 0
  br i1 %165, label %166, label %167

166:                                              ; preds = %158
  call void (ptr, ...) @cli_dbgmsg(ptr noundef @.str.30)
  store i32 6, ptr %8, align 4
  store i32 1, ptr %26, align 4
  br label %173

167:                                              ; preds = %158
  %168 = getelementptr inbounds nuw %struct.cli_asn1, ptr %17, i32 0, i32 1
  %169 = load i32, ptr %168, align 4, !tbaa !19
  %170 = icmp ne i32 %169, 0
  br i1 %170, label %171, label %172

171:                                              ; preds = %167
  call void (ptr, ...) @cli_dbgmsg(ptr noundef @.str.31)
  store i32 27, ptr %8, align 4
  store i32 1, ptr %26, align 4
  br label %173

172:                                              ; preds = %167
  call void (ptr, ...) @cli_dbgmsg(ptr noundef @.str.32)
  store i32 33, ptr %8, align 4
  store i32 1, ptr %26, align 4
  br label %173

173:                                              ; preds = %172, %171, %166, %125, %80, %75, %68, %64, %57, %50, %43, %33
  call void @llvm.lifetime.end.p0(i64 4, ptr %25) #8
  call void @llvm.lifetime.end.p0(i64 8, ptr %24) #8
  call void @llvm.lifetime.end.p0(i64 4, ptr %23) #8
  call void @llvm.lifetime.end.p0(i64 16, ptr %22) #8
  call void @llvm.lifetime.end.p0(i64 8, ptr %21) #8
  call void @llvm.lifetime.end.p0(i64 4, ptr %20) #8
  call void @llvm.lifetime.end.p0(i64 64, ptr %19) #8
  call void @llvm.lifetime.end.p0(i64 4, ptr %18) #8
  call void @llvm.lifetime.end.p0(i64 24, ptr %17) #8
  call void @llvm.lifetime.end.p0(i64 4, ptr %16) #8
  %174 = load i32, ptr %8, align 4
  ret i32 %174
}