; Function Attrs: nounwind uwtable
define range(i32 1, 0) i32 @asn1_check_mscat(ptr noundef %0, ptr noundef %1, i64 noundef %2, i32 noundef %3, ptr noundef readonly captures(none) %4, i32 noundef %5, ptr noundef %6) local_unnamed_addr #0 {
  %8 = alloca i32, align 4
  %9 = alloca %struct.cli_asn1, align 8
  %10 = alloca i32, align 4
  %11 = alloca [64 x i8], align 16
  %12 = alloca i32, align 4
  %13 = alloca ptr, align 8
  %14 = alloca %struct.crtmgr, align 8
  %15 = alloca [129 x i8], align 16
  call void @llvm.lifetime.start.p0(i64 4, ptr nonnull %8) #11
  call void @llvm.lifetime.start.p0(i64 24, ptr nonnull %9) #11
  call void @llvm.lifetime.start.p0(i64 4, ptr nonnull %10) #11
  call void @llvm.lifetime.start.p0(i64 64, ptr nonnull %11) #11
  call void @llvm.lifetime.start.p0(i64 4, ptr nonnull %12) #11
  call void @llvm.lifetime.start.p0(i64 8, ptr nonnull %13) #11
  call void @llvm.lifetime.start.p0(i64 16, ptr nonnull %14) #11
  tail call void (ptr, ...) @cli_dbgmsg(ptr noundef nonnull @.str.23, i64 noundef %2) #11
  call void @crtmgr_init(ptr noundef nonnull %14) #11
  %16 = call i32 @crtmgr_add_roots(ptr noundef %0, ptr noundef nonnull %14, i32 noundef 1) #11
  %.not = icmp eq i32 %16, 0
  br i1 %.not, label %18, label %17

17:                                               ; preds = %7
  call void @crtmgr_free(ptr noundef nonnull %14) #11
  br label %.loopexit

18:                                               ; preds = %7
  %19 = call fastcc i32 @asn1_parse_mscat(ptr noundef %0, ptr noundef %1, i64 noundef %2, i32 noundef %3, ptr noundef nonnull %14, i32 noundef 1, ptr noundef %13, ptr noundef %8, ptr noundef %6)
  call void @crtmgr_free(ptr noundef nonnull %14) #11
  %.not41 = icmp eq i32 %19, 0
  br i1 %.not41, label %20, label %.loopexit

20:                                               ; preds = %18
  %21 = load ptr, ptr %13, align 8, !tbaa !61
  %22 = call fastcc i32 @asn1_get_obj(ptr noundef %1, ptr noundef %21, ptr noundef nonnull %8, ptr noundef nonnull %9)
  %.not.i = icmp eq i32 %22, 0
  br i1 %.not.i, label %23, label %27

23:                                               ; preds = %20
  %24 = load i8, ptr %9, align 8, !tbaa !15
  %.not13.i = icmp eq i8 %24, 48
  br i1 %.not13.i, label %asn1_expect_objtype.exit, label %25

25:                                               ; preds = %23
  %26 = zext i8 %24 to i32
  call void (ptr, ...) @cli_dbgmsg(ptr noundef nonnull @.str.275, i32 noundef 48, i32 noundef %26) #11
  br label %27

27:                                               ; preds = %25, %20
  call void (ptr, ...) @cli_dbgmsg(ptr noundef nonnull @.str.24) #11
  br label %.loopexit

asn1_expect_objtype.exit:                         ; preds = %23
  %28 = getelementptr inbounds nuw i8, ptr %9, i64 8
  %29 = getelementptr inbounds nuw i8, ptr %9, i64 4
  %30 = call fastcc i32 @asn1_expect_obj(ptr noundef %1, ptr noundef %28, ptr noundef %29, i8 noundef zeroext 6, i32 noundef 10, ptr noundef nonnull @.str.9)
  %.not43 = icmp eq i32 %30, 0
  br i1 %.not43, label %32, label %31

31:                                               ; preds = %asn1_expect_objtype.exit
  call void (ptr, ...) @cli_dbgmsg(ptr noundef nonnull @.str.25) #11
  br label %.loopexit

32:                                               ; preds = %asn1_expect_objtype.exit
  %33 = getelementptr inbounds nuw i8, ptr %9, i64 16
  %34 = load ptr, ptr %33, align 8, !tbaa !12
  %35 = call fastcc i32 @asn1_expect_objtype(ptr noundef %1, ptr noundef %34, ptr noundef %8, ptr noundef %9, i8 noundef zeroext 48)
  %.not44 = icmp eq i32 %35, 0
  br i1 %.not44, label %37, label %36

36:                                               ; preds = %32
  call void (ptr, ...) @cli_dbgmsg(ptr noundef nonnull @.str.26) #11
  br label %.loopexit

37:                                               ; preds = %32
  %38 = load i32, ptr %8, align 4, !tbaa !17
  %.not45 = icmp eq i32 %38, 0
  br i1 %.not45, label %40, label %39

39:                                               ; preds = %37
  call void (ptr, ...) @cli_dbgmsg(ptr noundef nonnull @.str.27) #11
  br label %.loopexit

40:                                               ; preds = %37
  %41 = call fastcc i32 @asn1_expect_hash_algo(ptr noundef %1, ptr noundef %28, ptr noundef %29, ptr noundef %10, ptr noundef %12)
  %.not46 = icmp eq i32 %41, 0
  br i1 %.not46, label %43, label %42

42:                                               ; preds = %40
  call void (ptr, ...) @cli_dbgmsg(ptr noundef nonnull @.str.28) #11
  br label %.loopexit

43:                                               ; preds = %40
  %44 = load i32, ptr %10, align 4, !tbaa !17
  %45 = call fastcc ptr @get_hash_ctx(i32 noundef %44)
  %46 = icmp eq ptr %45, null
  br i1 %46, label %.loopexit, label %.preheader

.preheader:                                       ; preds = %43
  %.not59 = icmp eq i32 %5, 0
  br i1 %.not59, label %._crit_edge, label %.lr.ph

.lr.ph:                                           ; preds = %.preheader
  %47 = getelementptr inbounds nuw i8, ptr %1, i64 104
  %wide.trip.count = zext i32 %5 to i64
  br label %48

48:                                               ; preds = %.lr.ph, %63
  %indvars.iv = phi i64 [ 0, %.lr.ph ], [ %indvars.iv.next, %63 ]
  %49 = getelementptr inbounds nuw %struct.cli_mapped_region, ptr %4, i64 %indvars.iv
  %50 = getelementptr inbounds nuw i8, ptr %49, i64 4
  %51 = load i32, ptr %50, align 4, !tbaa !76
  %52 = icmp eq i32 %51, 0
  br i1 %52, label %63, label %53

53:                                               ; preds = %48
  %54 = load i32, ptr %49, align 4, !tbaa !78
  %55 = zext i32 %54 to i64
  %56 = zext i32 %51 to i64
  %57 = load ptr, ptr %47, align 8, !tbaa !19
  %58 = call ptr %57(ptr noundef %1, i64 noundef %55, i64 noundef range(i64 1, 4294967296) %56, i32 noundef 0) #11
  %.not50 = icmp eq ptr %58, null
  br i1 %.not50, label %.loopexit, label %59

59:                                               ; preds = %53
  %60 = load i32, ptr %50, align 4, !tbaa !76
  %61 = zext i32 %60 to i64
  %62 = call i32 @cl_update_hash(ptr noundef nonnull %45, ptr noundef nonnull %58, i64 noundef %61) #11
  br label %63

63:                                               ; preds = %59, %48
  %indvars.iv.next = add nuw nsw i64 %indvars.iv, 1
  %exitcond.not = icmp eq i64 %indvars.iv.next, %wide.trip.count
  br i1 %exitcond.not, label %._crit_edge, label %48

._crit_edge:                                      ; preds = %63, %.preheader
  %64 = call i32 @cl_finish_hash(ptr noundef nonnull %45, ptr noundef nonnull %11) #11
  %65 = load i8, ptr @cli_debug_flag, align 1, !tbaa !22
  %.not47 = icmp eq i8 %65, 0
  %.pre = load i32, ptr %12, align 4, !tbaa !17
  br i1 %.not47, label %74, label %66

66:                                               ; preds = %._crit_edge
  call void @llvm.lifetime.start.p0(i64 129, ptr nonnull %15) #11
  %.not60 = icmp eq i32 %.pre, 0
  br i1 %.not60, label %._crit_edge58, label %.lr.ph57.preheader

.lr.ph57.preheader:                               ; preds = %66
  %wide.trip.count65 = zext i32 %.pre to i64
  br label %.lr.ph57

.lr.ph57:                                         ; preds = %.lr.ph57.preheader, %.lr.ph57
  %indvars.iv62 = phi i64 [ 0, %.lr.ph57.preheader ], [ %indvars.iv.next63, %.lr.ph57 ]
  %67 = shl nuw i64 %indvars.iv62, 1
  %68 = and i64 %67, 4294967294
  %69 = getelementptr inbounds nuw [129 x i8], ptr %15, i64 0, i64 %68
  %70 = getelementptr inbounds nuw [64 x i8], ptr %11, i64 0, i64 %indvars.iv62
  %71 = load i8, ptr %70, align 1, !tbaa !22
  %72 = zext i8 %71 to i32
  %73 = call i32 (ptr, ptr, ...) @sprintf(ptr noundef nonnull dereferenceable(1) %69, ptr noundef nonnull dereferenceable(1) @.str.18, i32 noundef %72) #11
  %indvars.iv.next63 = add nuw nsw i64 %indvars.iv62, 1
  %exitcond66.not = icmp eq i64 %indvars.iv.next63, %wide.trip.count65
  br i1 %exitcond66.not, label %._crit_edge58, label %.lr.ph57

._crit_edge58:                                    ; preds = %.lr.ph57, %66
  call void (ptr, ...) @cli_dbgmsg(ptr noundef nonnull @.str.29, ptr noundef nonnull %15) #11
  call void @llvm.lifetime.end.p0(i64 129, ptr nonnull %15) #11
  br label %74

74:                                               ; preds = %._crit_edge58, %._crit_edge
  %75 = call fastcc i32 @asn1_expect_obj(ptr noundef %1, ptr noundef %28, ptr noundef %29, i8 noundef zeroext 4, i32 noundef %.pre, ptr noundef nonnull %11)
  %.not48 = icmp eq i32 %75, 0
  br i1 %.not48, label %77, label %76

76:                                               ; preds = %74
  call void (ptr, ...) @cli_dbgmsg(ptr noundef nonnull @.str.30) #11
  br label %.loopexit

77:                                               ; preds = %74
  %78 = load i32, ptr %29, align 4, !tbaa !16
  %.not49 = icmp eq i32 %78, 0
  br i1 %.not49, label %80, label %79

79:                                               ; preds = %77
  call void (ptr, ...) @cli_dbgmsg(ptr noundef nonnull @.str.31) #11
  br label %.loopexit

80:                                               ; preds = %77
  call void (ptr, ...) @cli_dbgmsg(ptr noundef nonnull @.str.32) #11
  br label %.loopexit

.loopexit:                                        ; preds = %53, %43, %18, %80, %79, %76, %42, %39, %36, %31, %27, %17
  %.0 = phi i32 [ 6, %17 ], [ 27, %27 ], [ 27, %31 ], [ 27, %36 ], [ 27, %39 ], [ 27, %42 ], [ 6, %76 ], [ 27, %79 ], [ 33, %80 ], [ %19, %18 ], [ 27, %43 ], [ 6, %53 ]
  call void @llvm.lifetime.end.p0(i64 16, ptr nonnull %14) #11
  call void @llvm.lifetime.end.p0(i64 8, ptr nonnull %13) #11
  call void @llvm.lifetime.end.p0(i64 4, ptr nonnull %12) #11
  call void @llvm.lifetime.end.p0(i64 64, ptr nonnull %11) #11
  call void @llvm.lifetime.end.p0(i64 4, ptr nonnull %10) #11
  call void @llvm.lifetime.end.p0(i64 24, ptr nonnull %9) #11
  call void @llvm.lifetime.end.p0(i64 4, ptr nonnull %8) #11
  ret i32 %.0
}